; Function Attrs: nofree norecurse nosync nounwind memory(readwrite, inaccessiblemem: none) uwtable
define hidden void @IntArgbBmToIntArgbScaleXparOver(ptr noundef %0, ptr noundef %1, i32 noundef %2, i32 noundef %3, i32 noundef %4, i32 noundef %5, i32 noundef %6, i32 noundef %7, i32 noundef %8, ptr nocapture noundef readonly %9, ptr nocapture noundef readonly %10, ptr nocapture readnone %11, ptr nocapture readnone %12) #1 {
  %14 = getelementptr inbounds i8, ptr %9, i64 32
  %15 = load i32, ptr %14, align 8
  %16 = getelementptr inbounds i8, ptr %10, i64 32
  %17 = load i32, ptr %16, align 8
  %18 = shl i32 %2, 2
  %19 = sub i32 %17, %18
  %20 = sext i32 %19 to i64
  %21 = ptrtoint ptr %0 to i64
  %22 = sext i32 %15 to i64
  br label %23

23:                                               ; preds = %43, %13
  %.028 = phi ptr [ %1, %13 ], [ %45, %43 ]
  %.027 = phi i32 [ %5, %13 ], [ %46, %43 ]
  %.0 = phi i32 [ %3, %13 ], [ %47, %43 ]
  %24 = ashr i32 %.027, %8
  %25 = sext i32 %24 to i64
  %26 = mul nsw i64 %25, %22
  %27 = add nsw i64 %26, %21
  %28 = inttoptr i64 %27 to ptr
  br label %29

29:                                               ; preds = %37, %23
  %.030 = phi i32 [ %2, %23 ], [ %42, %37 ]
  %.029 = phi i32 [ %4, %23 ], [ %41, %37 ]
  %.1 = phi ptr [ %.028, %23 ], [ %40, %37 ]
  %30 = ashr i32 %.029, %8
  %31 = sext i32 %30 to i64
  %32 = getelementptr inbounds i32, ptr %28, i64 %31
  %33 = load i32, ptr %32, align 4
  %34 = icmp ult i32 %33, 16777216
  br i1 %34, label %37, label %35

35:                                               ; preds = %29
  %36 = or i32 %33, -16777216
  store i32 %36, ptr %.1, align 4
  br label %37

37:                                               ; preds = %29, %35
  %38 = ptrtoint ptr %.1 to i64
  %39 = add nsw i64 %38, 4
  %40 = inttoptr i64 %39 to ptr
  %41 = add nsw i32 %.029, %6
  %42 = add i32 %.030, -1
  %.not = icmp eq i32 %42, 0
  br i1 %.not, label %43, label %29, !llvm.loop !17

43:                                               ; preds = %37
  %44 = add nsw i64 %39, %20
  %45 = inttoptr i64 %44 to ptr
  %46 = add nsw i32 %.027, %7
  %47 = add i32 %.0, -1
  %.not33 = icmp eq i32 %47, 0
  br i1 %.not33, label %48, label %23, !llvm.loop !18

48:                                               ; preds = %43
  ret void
}